; Function Attrs: mustprogress uwtable
define void @_ZN2cv11randShuffleERKNS_17_InputOutputArrayEdPNS_3RNGE(ptr noundef nonnull align 8 dereferenceable(24) %0, double noundef %1, ptr noundef %2) local_unnamed_addr #1 personality ptr @__gxx_personality_v0 {
  %4 = alloca %"class.cv::utils::trace::details::Region", align 8
  %5 = alloca %"class.cv::Mat", align 8
  %6 = alloca %"class.std::__cxx11::basic_string", align 8
  %7 = alloca %"class.std::allocator", align 1
  %8 = alloca %"class.std::__cxx11::basic_string", align 8
  %9 = alloca %"class.std::allocator", align 1
  call void @_ZN2cv5utils5trace7details6RegionC1ERKNS3_21LocationStaticStorageE(ptr noundef nonnull align 8 dereferenceable(12) %4, ptr noundef nonnull align 8 dereferenceable(32) @_ZZN2cv11randShuffleERKNS_17_InputOutputArrayEdPNS_3RNGEE25__cv_trace_location_fn722)
  %10 = invoke noundef i32 @_ZNK2cv11_InputArray4kindEv(ptr noundef nonnull align 8 dereferenceable(24) %0)
          to label %.noexc unwind label %29

.noexc:                                           ; preds = %3
  %11 = icmp eq i32 %10, 65536
  br i1 %11, label %12, label %15

12:                                               ; preds = %.noexc
  %13 = getelementptr inbounds i8, ptr %0, i64 8
  %14 = load ptr, ptr %13, align 8, !noalias !37
  invoke void @_ZN2cv3MatC1ERKS0_(ptr noundef nonnull align 8 dereferenceable(96) %5, ptr noundef nonnull align 8 dereferenceable(96) %14)
          to label %_ZNK2cv11_InputArray6getMatEi.exit unwind label %29

15:                                               ; preds = %.noexc
  invoke void @_ZNK2cv11_InputArray7getMat_Ei(ptr dead_on_unwind nonnull writable sret(%"class.cv::Mat") align 8 %5, ptr noundef nonnull align 8 dereferenceable(24) %0, i32 noundef -1)
          to label %_ZNK2cv11_InputArray6getMatEi.exit unwind label %29

_ZNK2cv11_InputArray6getMatEi.exit:               ; preds = %12, %15
  %.not = icmp eq ptr %2, null
  br i1 %.not, label %16, label %_ZN2cv6theRNGEv.exit

16:                                               ; preds = %_ZNK2cv11_InputArray6getMatEi.exit
  %17 = invoke noundef nonnull align 8 dereferenceable(40) ptr @_ZN2cv14getCoreTlsDataEv()
          to label %_ZN2cv6theRNGEv.exit unwind label %31

_ZN2cv6theRNGEv.exit:                             ; preds = %16, %_ZNK2cv11_InputArray6getMatEi.exit
  %18 = phi ptr [ %2, %_ZNK2cv11_InputArray6getMatEi.exit ], [ %17, %16 ]
  %19 = getelementptr inbounds i8, ptr %5, i64 4
  %20 = load i32, ptr %19, align 4
  %21 = icmp sgt i32 %20, 0
  br i1 %21, label %_ZNK2cv3Mat8elemSizeEv.exit, label %_ZNK2cv3Mat8elemSizeEv.exit24

_ZNK2cv3Mat8elemSizeEv.exit:                      ; preds = %_ZN2cv6theRNGEv.exit
  %22 = getelementptr inbounds i8, ptr %5, i64 72
  %23 = load ptr, ptr %22, align 8
  %24 = zext nneg i32 %20 to i64
  %25 = getelementptr i64, ptr %23, i64 %24
  %26 = getelementptr i8, ptr %25, i64 -8
  %27 = load i64, ptr %26, align 8
  %28 = icmp ult i64 %27, 33
  br i1 %28, label %_ZNK2cv3Mat8elemSizeEv.exit24, label %33

29:                                               ; preds = %15, %12, %3
  %30 = landingpad { ptr, i32 }
          cleanup
  br label %63

31:                                               ; preds = %16, %52
  %32 = landingpad { ptr, i32 }
          cleanup
  br label %62

33:                                               ; preds = %_ZNK2cv3Mat8elemSizeEv.exit
  call void @_ZNSaIcEC1Ev(ptr noundef nonnull align 1 dereferenceable(1) %7) #19
  invoke void @_ZNSt7__cxx1112basic_stringIcSt11char_traitsIcESaIcEEC1EPKcRKS3_(ptr noundef nonnull align 8 dereferenceable(32) %6, ptr noundef nonnull @.str.10, ptr noundef nonnull align 1 dereferenceable(1) %7)
          to label %34 unwind label %36

34:                                               ; preds = %33
  invoke void @_ZN2cv5errorEiRKNSt7__cxx1112basic_stringIcSt11char_traitsIcESaIcEEEPKcS9_i(i32 noundef -215, ptr noundef nonnull align 8 dereferenceable(32) %6, ptr noundef nonnull @__func__._ZN2cv11randShuffleERKNS_17_InputOutputArrayEdPNS_3RNGE, ptr noundef nonnull @.str.1, i32 noundef 747) #20
          to label %35 unwind label %38

35:                                               ; preds = %34
  unreachable

36:                                               ; preds = %33
  %37 = landingpad { ptr, i32 }
          cleanup
  br label %40

38:                                               ; preds = %34
  %39 = landingpad { ptr, i32 }
          cleanup
  call void @_ZNSt7__cxx1112basic_stringIcSt11char_traitsIcESaIcEED1Ev(ptr noundef nonnull align 8 dereferenceable(32) %6) #19
  br label %40

40:                                               ; preds = %38, %36
  %.pn = phi { ptr, i32 } [ %39, %38 ], [ %37, %36 ]
  call void @_ZNSaIcED1Ev(ptr noundef nonnull align 1 dereferenceable(1) %7) #19
  br label %62

_ZNK2cv3Mat8elemSizeEv.exit24:                    ; preds = %_ZNK2cv3Mat8elemSizeEv.exit, %_ZN2cv6theRNGEv.exit
  %41 = phi i64 [ 0, %_ZN2cv6theRNGEv.exit ], [ %27, %_ZNK2cv3Mat8elemSizeEv.exit ]
  %42 = lshr i64 4278120097, %41
  %43 = and i64 %42, 1
  %.not15.not = icmp eq i64 %43, 0
  br i1 %.not15.not, label %52, label %44

44:                                               ; preds = %_ZNK2cv3Mat8elemSizeEv.exit24
  call void @_ZNSaIcEC1Ev(ptr noundef nonnull align 1 dereferenceable(1) %9) #19
  invoke void @_ZNSt7__cxx1112basic_stringIcSt11char_traitsIcESaIcEEC1EPKcRKS3_(ptr noundef nonnull align 8 dereferenceable(32) %8, ptr noundef nonnull @.str.4, ptr noundef nonnull align 1 dereferenceable(1) %9)
          to label %45 unwind label %47

45:                                               ; preds = %44
  invoke void @_ZN2cv5errorEiRKNSt7__cxx1112basic_stringIcSt11char_traitsIcESaIcEEEPKcS9_i(i32 noundef -215, ptr noundef nonnull align 8 dereferenceable(32) %8, ptr noundef nonnull @__func__._ZN2cv11randShuffleERKNS_17_InputOutputArrayEdPNS_3RNGE, ptr noundef nonnull @.str.1, i32 noundef 749) #20
          to label %46 unwind label %49

46:                                               ; preds = %45
  unreachable

47:                                               ; preds = %44
  %48 = landingpad { ptr, i32 }
          cleanup
  br label %51

49:                                               ; preds = %45
  %50 = landingpad { ptr, i32 }
          cleanup
  call void @_ZNSt7__cxx1112basic_stringIcSt11char_traitsIcESaIcEED1Ev(ptr noundef nonnull align 8 dereferenceable(32) %8) #19
  br label %51

51:                                               ; preds = %49, %47
  %.pn16 = phi { ptr, i32 } [ %50, %49 ], [ %48, %47 ]
  call void @_ZNSaIcED1Ev(ptr noundef nonnull align 1 dereferenceable(1) %9) #19
  br label %62

52:                                               ; preds = %_ZNK2cv3Mat8elemSizeEv.exit24
  %53 = getelementptr inbounds [33 x ptr], ptr @__const._ZN2cv11randShuffleERKNS_17_InputOutputArrayEdPNS_3RNGE.tab, i64 0, i64 %41
  %54 = load ptr, ptr %53, align 8
  invoke void %54(ptr noundef nonnull align 8 dereferenceable(96) %5, ptr noundef nonnull align 8 dereferenceable(8) %18, double noundef %1)
          to label %55 unwind label %31

55:                                               ; preds = %52
  call void @_ZN2cv3MatD1Ev(ptr noundef nonnull align 8 dereferenceable(96) %5) #19
  %56 = getelementptr inbounds i8, ptr %4, i64 8
  %57 = load i32, ptr %56, align 8
  %.not.i = icmp eq i32 %57, 0
  br i1 %.not.i, label %_ZN2cv5utils5trace7details6RegionD2Ev.exit, label %58

58:                                               ; preds = %55
  invoke void @_ZN2cv5utils5trace7details6Region7destroyEv(ptr noundef nonnull align 8 dereferenceable(12) %4)
          to label %_ZN2cv5utils5trace7details6RegionD2Ev.exit unwind label %59

59:                                               ; preds = %58
  %60 = landingpad { ptr, i32 }
          catch ptr null
  %61 = extractvalue { ptr, i32 } %60, 0
  call void @__clang_call_terminate(ptr %61) #23
  unreachable

_ZN2cv5utils5trace7details6RegionD2Ev.exit:       ; preds = %55, %58
  ret void

62:                                               ; preds = %51, %40, %31
  %.pn18 = phi { ptr, i32 } [ %32, %31 ], [ %.pn16, %51 ], [ %.pn, %40 ]
  call void @_ZN2cv3MatD1Ev(ptr noundef nonnull align 8 dereferenceable(96) %5) #19
  br label %63

63:                                               ; preds = %62, %29
  %.pn18.pn = phi { ptr, i32 } [ %.pn18, %62 ], [ %30, %29 ]
  call void @_ZN2cv5utils5trace7details6RegionD2Ev(ptr noundef nonnull align 8 dereferenceable(12) %4) #19
  resume { ptr, i32 } %.pn18.pn
}